target datalayout = "e-m:e-p270:32:32-p271:32:32-p272:64:64-i64:64-i128:128-f80:128-n8:16:32:64-S128"
target triple = "x86_64-pc-linux-gnu"

@__const.pmix_mca_base_component_repository_add.sep = private unnamed_addr constant [2 x i8] c":\00", align 1
@pmix_mca_base_system_default_path = external global ptr, align 8
@pmix_mca_base_user_default_path = external global ptr, align 8
@.str.2 = private unnamed_addr constant [23 x i8] c"help-pmix-mca-base.txt\00", align 1
@.str.3 = private unnamed_addr constant [28 x i8] c"failed to add component dir\00", align 1

; Function Attrs: nounwind uwtable
define i32 @pmix_mca_base_component_repository_add(ptr noundef %0, ptr noundef %1) #0 {
  %3 = alloca i32, align 4
  %4 = alloca ptr, align 8
  %5 = alloca ptr, align 8
  %6 = alloca ptr, align 8
  %7 = alloca ptr, align 8
  %8 = alloca ptr, align 8
  %9 = alloca [2 x i8], align 1
  %10 = alloca i32, align 4
  store ptr %0, ptr %4, align 8, !tbaa !30
  store ptr %1, ptr %5, align 8, !tbaa !30
  call void @llvm.lifetime.start.p0(i64 8, ptr %6) #12
  store ptr null, ptr %6, align 8, !tbaa !30
  call void @llvm.lifetime.start.p0(i64 8, ptr %7) #12
  call void @llvm.lifetime.start.p0(i64 8, ptr %8) #12
  call void @llvm.lifetime.start.p0(i64 2, ptr %9) #12
  call void @llvm.memcpy.p0.p0.i64(ptr align 1 %9, ptr align 1 @__const.pmix_mca_base_component_repository_add.sep, i64 2, i1 false)
  %11 = load ptr, ptr %5, align 8, !tbaa !30
  %12 = icmp eq ptr null, %11
  br i1 %12, label %13, label %14

13:                                               ; preds = %2
  store i32 0, ptr %3, align 4
  store i32 1, ptr %10, align 4
  br label %45

14:                                               ; preds = %2
  %15 = load ptr, ptr %5, align 8, !tbaa !30
  %16 = call noalias ptr @strdup(ptr noundef %15) #12
  store ptr %16, ptr %6, align 8, !tbaa !30
  %17 = load ptr, ptr %6, align 8, !tbaa !30
  %18 = getelementptr inbounds [2 x i8], ptr %9, i64 0, i64 0
  %19 = call ptr @strtok_r(ptr noundef %17, ptr noundef %18, ptr noundef %8) #12
  store ptr %19, ptr %7, align 8, !tbaa !30
  br label %20

20:                                               ; preds = %39, %14
  %21 = load ptr, ptr %7, align 8, !tbaa !30
  %22 = load ptr, ptr %4, align 8, !tbaa !30
  %23 = call i32 @pmix_pdl_foreachfile(ptr noundef %21, ptr noundef @process_repository_item, ptr noundef %22)
  %24 = icmp ne i32 0, %23
  br i1 %24, label %25, label %38

25:                                               ; preds = %20
  %26 = load ptr, ptr %7, align 8, !tbaa !30
  %27 = load ptr, ptr @pmix_mca_base_system_default_path, align 8, !tbaa !30
  %28 = call i32 @strcmp(ptr noundef %26, ptr noundef %27) #13
  %29 = icmp eq i32 0, %28
  br i1 %29, label %38, label %30

30:                                               ; preds = %25
  %31 = load ptr, ptr %7, align 8, !tbaa !30
  %32 = load ptr, ptr @pmix_mca_base_user_default_path, align 8, !tbaa !30
  %33 = call i32 @strcmp(ptr noundef %31, ptr noundef %32) #13
  %34 = icmp eq i32 0, %33
  br i1 %34, label %38, label %35

35:                                               ; preds = %30
  %36 = load ptr, ptr %7, align 8, !tbaa !30
  %37 = call i32 (ptr, ptr, i32, ...) @pmix_show_help(ptr noundef @.str.2, ptr noundef @.str.3, i32 noundef 1, ptr noundef %36)
  br label %38

38:                                               ; preds = %35, %30, %25, %20
  br label %39

39:                                               ; preds = %38
  %40 = getelementptr inbounds [2 x i8], ptr %9, i64 0, i64 0
  %41 = call ptr @strtok_r(ptr noundef null, ptr noundef %40, ptr noundef %8) #12
  store ptr %41, ptr %7, align 8, !tbaa !30
  %42 = icmp ne ptr null, %41
  br i1 %42, label %20, label %43, !llvm.loop !31

43:                                               ; preds = %39
  %44 = load ptr, ptr %6, align 8, !tbaa !30
  call void @free(ptr noundef %44) #12
  store i32 0, ptr %3, align 4
  store i32 1, ptr %10, align 4
  br label %45

45:                                               ; preds = %43, %13
  call void @llvm.lifetime.end.p0(i64 2, ptr %9) #12
  call void @llvm.lifetime.end.p0(i64 8, ptr %8) #12
  call void @llvm.lifetime.end.p0(i64 8, ptr %7) #12
  call void @llvm.lifetime.end.p0(i64 8, ptr %6) #12
  %46 = load i32, ptr %3, align 4
  ret i32 %46
}