; Function Attrs: nounwind uwtable
define noundef i32 @pmix_mca_base_component_repository_add(ptr noundef %0, ptr noundef readonly captures(address_is_null) %1) local_unnamed_addr #1 {
  %3 = alloca ptr, align 8
  call void @llvm.lifetime.start.p0(i64 8, ptr nonnull %3) #15
  %4 = icmp eq ptr %1, null
  br i1 %4, label %23, label %5

5:                                                ; preds = %2
  %6 = tail call noalias ptr @strdup(ptr noundef nonnull %1) #15
  %7 = call ptr @strtok_r(ptr noundef %6, ptr noundef nonnull @__const.pmix_mca_base_component_repository_add.sep, ptr noundef nonnull %3) #15
  br label %8

8:                                                ; preds = %20, %5
  %.0 = phi ptr [ %7, %5 ], [ %21, %20 ]
  %9 = call i32 @pmix_pdl_foreachfile(ptr noundef %.0, ptr noundef nonnull @process_repository_item, ptr noundef %0) #15
  %.not = icmp eq i32 %9, 0
  br i1 %.not, label %20, label %10

10:                                               ; preds = %8
  %11 = load ptr, ptr @pmix_mca_base_system_default_path, align 8, !tbaa !24
  %12 = call i32 @strcmp(ptr noundef nonnull dereferenceable(1) %.0, ptr noundef nonnull dereferenceable(1) %11) #16
  %13 = icmp eq i32 %12, 0
  br i1 %13, label %20, label %14

14:                                               ; preds = %10
  %15 = load ptr, ptr @pmix_mca_base_user_default_path, align 8, !tbaa !24
  %16 = call i32 @strcmp(ptr noundef nonnull dereferenceable(1) %.0, ptr noundef nonnull dereferenceable(1) %15) #16
  %17 = icmp eq i32 %16, 0
  br i1 %17, label %20, label %18

18:                                               ; preds = %14
  %19 = call i32 (ptr, ptr, i32, ...) @pmix_show_help(ptr noundef nonnull @.str.2, ptr noundef nonnull @.str.3, i32 noundef 1, ptr noundef nonnull %.0) #15
  br label %20

20:                                               ; preds = %8, %10, %14, %18
  %21 = call ptr @strtok_r(ptr noundef null, ptr noundef nonnull @__const.pmix_mca_base_component_repository_add.sep, ptr noundef nonnull %3) #15
  %.not12 = icmp eq ptr %21, null
  br i1 %.not12, label %22, label %8, !llvm.loop !25

22:                                               ; preds = %20
  call void @free(ptr noundef %6) #15
  br label %23

23:                                               ; preds = %2, %22
  call void @llvm.lifetime.end.p0(i64 8, ptr nonnull %3) #15
  ret i32 0
}